; Function Attrs: nounwind uwtable
define hidden noundef zeroext i1 @je_tsd_tcache_enabled_data_init(ptr noundef initializes((0, 1), (312, 316)) %0) local_unnamed_addr #0 {
  %2 = load i8, ptr @je_opt_tcache, align 1, !tbaa !20, !range !22, !noundef !23
  store i8 %2, ptr %0, align 1, !tbaa !20
  %3 = load i32, ptr @je_global_do_not_change_tcache_nbins, align 4, !tbaa !60
  %4 = getelementptr inbounds nuw i8, ptr %0, i64 312
  store i32 %3, ptr %4, align 8, !tbaa !36
  tail call void @je_tsd_slow_update(ptr noundef nonnull %0) #16
  %5 = load i8, ptr @je_opt_tcache, align 1, !tbaa !20, !range !22, !noundef !23
  %6 = trunc nuw i8 %5 to i1
  br i1 %6, label %7, label %8

7:                                                ; preds = %1
  tail call fastcc void @tsd_tcache_data_init(ptr noundef nonnull %0, ptr noundef null, ptr noundef nonnull @opt_tcache_ncached_max)
  br label %8

8:                                                ; preds = %7, %1
  ret i1 false
}